target datalayout = "e-m:e-p270:32:32-p271:32:32-p272:64:64-i64:64-i128:128-f80:128-n8:16:32:64-S128"
target triple = "x86_64-pc-linux-gnu"

%struct.lean_object = type { i32, i32 }
%struct.lean_ctor_object = type { %struct.lean_object, [0 x ptr] }

; Function Attrs: inlinehint nounwind uwtable
define internal ptr @lean_to_ctor(ptr noundef %0) #0 {
  %2 = alloca ptr, align 8
  store ptr %0, ptr %2, align 8, !tbaa !8
  %3 = load ptr, ptr %2, align 8, !tbaa !8
  ret ptr %3
}

; Function Attrs: inlinehint nounwind uwtable
define internal ptr @lean_ctor_obj_cptr(ptr noundef %0) #0 {
  %2 = alloca ptr, align 8
  store ptr %0, ptr %2, align 8, !tbaa !8
  %3 = load ptr, ptr %2, align 8, !tbaa !8
  %4 = call ptr @lean_to_ctor(ptr noundef %3)
  %5 = getelementptr inbounds nuw %struct.lean_ctor_object, ptr %4, i32 0, i32 1
  %6 = getelementptr inbounds [0 x ptr], ptr %5, i64 0, i64 0
  ret ptr %6
}

; Function Attrs: alwaysinline nounwind uwtable
define internal void @lean_dec_ref(ptr noundef %0) #1 {
  %2 = alloca ptr, align 8
  store ptr %0, ptr %2, align 8, !tbaa !8
  %3 = load ptr, ptr %2, align 8, !tbaa !8
  %4 = getelementptr inbounds nuw %struct.lean_object, ptr %3, i32 0, i32 0
  %5 = load i32, ptr %4, align 4, !tbaa !15
  %6 = icmp sgt i32 %5, 1
  %7 = zext i1 %6 to i32
  %8 = sext i32 %7 to i64
  %9 = call i64 @llvm.expect.i64(i64 %8, i64 1)
  %10 = icmp ne i64 %9, 0
  br i1 %10, label %11, label %16

11:                                               ; preds = %1
  %12 = load ptr, ptr %2, align 8, !tbaa !8
  %13 = getelementptr inbounds nuw %struct.lean_object, ptr %12, i32 0, i32 0
  %14 = load i32, ptr %13, align 4, !tbaa !15
  %15 = add i32 %14, -1
  store i32 %15, ptr %13, align 4, !tbaa !15
  br label %24

16:                                               ; preds = %1
  %17 = load ptr, ptr %2, align 8, !tbaa !8
  %18 = getelementptr inbounds nuw %struct.lean_object, ptr %17, i32 0, i32 0
  %19 = load i32, ptr %18, align 4, !tbaa !15
  %20 = icmp ne i32 %19, 0
  br i1 %20, label %21, label %23

21:                                               ; preds = %16
  %22 = load ptr, ptr %2, align 8, !tbaa !8
  call void @lean_dec_ref_cold(ptr noundef %22)
  br label %23

23:                                               ; preds = %21, %16
  br label %24

24:                                               ; preds = %23, %11
  ret void
}

; Function Attrs: alwaysinline nounwind uwtable
define internal zeroext i1 @lean_is_scalar(ptr noundef %0) #1 {
  %2 = alloca ptr, align 8
  store ptr %0, ptr %2, align 8, !tbaa !8
  %3 = load ptr, ptr %2, align 8, !tbaa !8
  %4 = ptrtoint ptr %3 to i64
  %5 = and i64 %4, 1
  %6 = icmp eq i64 %5, 1
  ret i1 %6
}

; Function Attrs: inlinehint nounwind uwtable
define internal zeroext i8 @lean_ctor_get_uint8(ptr noundef %0, i32 noundef %1) #0 {
  %3 = alloca ptr, align 8
  %4 = alloca i32, align 4
  store ptr %0, ptr %3, align 8, !tbaa !8
  store i32 %1, ptr %4, align 4, !tbaa !13
  %5 = load ptr, ptr %3, align 8, !tbaa !8
  %6 = call ptr @lean_ctor_obj_cptr(ptr noundef %5)
  %7 = load i32, ptr %4, align 4, !tbaa !13
  %8 = zext i32 %7 to i64
  %9 = getelementptr inbounds nuw i8, ptr %6, i64 %8
  %10 = load i8, ptr %9, align 1, !tbaa !12
  ret i8 %10
}

; Function Attrs: inlinehint nounwind uwtable
define internal ptr @lean_ctor_get(ptr noundef %0, i32 noundef %1) #0 {
  %3 = alloca ptr, align 8
  %4 = alloca i32, align 4
  store ptr %0, ptr %3, align 8, !tbaa !8
  store i32 %1, ptr %4, align 4, !tbaa !13
  %5 = load ptr, ptr %3, align 8, !tbaa !8
  %6 = call ptr @lean_ctor_obj_cptr(ptr noundef %5)
  %7 = load i32, ptr %4, align 4, !tbaa !13
  %8 = zext i32 %7 to i64
  %9 = getelementptr inbounds nuw ptr, ptr %6, i64 %8
  %10 = load ptr, ptr %9, align 8, !tbaa !8
  ret ptr %10
}

; Function Attrs: inlinehint nounwind uwtable
define internal ptr @lean_box(i64 noundef %0) #0 {
  %2 = alloca i64, align 8
  store i64 %0, ptr %2, align 8, !tbaa !4
  %3 = load i64, ptr %2, align 8, !tbaa !4
  %4 = shl i64 %3, 1
  %5 = or i64 %4, 1
  %6 = inttoptr i64 %5 to ptr
  ret ptr %6
}

; Function Attrs: alwaysinline nounwind uwtable
define internal void @lean_dec(ptr noundef %0) #1 {
  %2 = alloca ptr, align 8
  store ptr %0, ptr %2, align 8, !tbaa !8
  %3 = load ptr, ptr %2, align 8, !tbaa !8
  %4 = call zeroext i1 @lean_is_scalar(ptr noundef %3)
  br i1 %4, label %7, label %5

5:                                                ; preds = %1
  %6 = load ptr, ptr %2, align 8, !tbaa !8
  call void @lean_dec_ref(ptr noundef %6)
  br label %7

7:                                                ; preds = %5, %1
  ret void
}

; Function Attrs: nounwind uwtable
define zeroext i8 @l_Lake_beqImport____x40_Lake_Load_Lean_Elab___hyg_6_(ptr noundef %0, ptr noundef %1) #2 {
  %3 = alloca i8, align 1
  %4 = alloca ptr, align 8
  %5 = alloca ptr, align 8
  %6 = alloca ptr, align 8
  %7 = alloca i8, align 1
  %8 = alloca i8, align 1
  %9 = alloca ptr, align 8
  %10 = alloca i8, align 1
  %11 = alloca i8, align 1
  %12 = alloca i8, align 1
  %13 = alloca i8, align 1
  %14 = alloca i8, align 1
  %15 = alloca i32, align 4
  %16 = alloca i8, align 1
  %17 = alloca i8, align 1
  %18 = alloca i8, align 1
  %19 = alloca i8, align 1
  %20 = alloca i8, align 1
  %21 = alloca i8, align 1
  %22 = alloca i8, align 1
  store ptr %0, ptr %4, align 8, !tbaa !8
  store ptr %1, ptr %5, align 8, !tbaa !8
  br label %23

23:                                               ; preds = %2
  call void @llvm.lifetime.start.p0(i64 8, ptr %6) #7
  call void @llvm.lifetime.start.p0(i64 1, ptr %7) #7
  call void @llvm.lifetime.start.p0(i64 1, ptr %8) #7
  call void @llvm.lifetime.start.p0(i64 8, ptr %9) #7
  call void @llvm.lifetime.start.p0(i64 1, ptr %10) #7
  call void @llvm.lifetime.start.p0(i64 1, ptr %11) #7
  call void @llvm.lifetime.start.p0(i64 1, ptr %12) #7
  call void @llvm.lifetime.start.p0(i64 1, ptr %13) #7
  %24 = load ptr, ptr %4, align 8, !tbaa !8
  %25 = call ptr @lean_ctor_get(ptr noundef %24, i32 noundef 0)
  store ptr %25, ptr %6, align 8, !tbaa !8
  %26 = load ptr, ptr %4, align 8, !tbaa !8
  %27 = call zeroext i8 @lean_ctor_get_uint8(ptr noundef %26, i32 noundef 8)
  store i8 %27, ptr %7, align 1, !tbaa !12
  %28 = load ptr, ptr %4, align 8, !tbaa !8
  %29 = call zeroext i8 @lean_ctor_get_uint8(ptr noundef %28, i32 noundef 9)
  store i8 %29, ptr %8, align 1, !tbaa !12
  %30 = load ptr, ptr %5, align 8, !tbaa !8
  %31 = call ptr @lean_ctor_get(ptr noundef %30, i32 noundef 0)
  store ptr %31, ptr %9, align 8, !tbaa !8
  %32 = load ptr, ptr %5, align 8, !tbaa !8
  %33 = call zeroext i8 @lean_ctor_get_uint8(ptr noundef %32, i32 noundef 8)
  store i8 %33, ptr %10, align 1, !tbaa !12
  %34 = load ptr, ptr %5, align 8, !tbaa !8
  %35 = call zeroext i8 @lean_ctor_get_uint8(ptr noundef %34, i32 noundef 9)
  store i8 %35, ptr %11, align 1, !tbaa !12
  %36 = load ptr, ptr %6, align 8, !tbaa !8
  %37 = load ptr, ptr %9, align 8, !tbaa !8
  %38 = call zeroext i8 @lean_name_eq(ptr noundef %36, ptr noundef %37)
  store i8 %38, ptr %13, align 1, !tbaa !12
  %39 = load i8, ptr %13, align 1, !tbaa !12
  %40 = zext i8 %39 to i32
  %41 = icmp eq i32 %40, 0
  br i1 %41, label %42, label %44

42:                                               ; preds = %23
  call void @llvm.lifetime.start.p0(i64 1, ptr %14) #7
  store i8 0, ptr %14, align 1, !tbaa !12
  %43 = load i8, ptr %14, align 1, !tbaa !12
  store i8 %43, ptr %3, align 1
  store i32 1, ptr %15, align 4
  call void @llvm.lifetime.end.p0(i64 1, ptr %14) #7
  br label %88

44:                                               ; preds = %23
  %45 = load i8, ptr %7, align 1, !tbaa !12
  %46 = zext i8 %45 to i32
  %47 = icmp eq i32 %46, 0
  br i1 %47, label %48, label %58

48:                                               ; preds = %44
  %49 = load i8, ptr %10, align 1, !tbaa !12
  %50 = zext i8 %49 to i32
  %51 = icmp eq i32 %50, 0
  br i1 %51, label %52, label %55

52:                                               ; preds = %48
  call void @llvm.lifetime.start.p0(i64 1, ptr %16) #7
  store i8 1, ptr %16, align 1, !tbaa !12
  %53 = load i8, ptr %16, align 1, !tbaa !12
  store i8 %53, ptr %12, align 1, !tbaa !12
  store i32 3, ptr %15, align 4
  call void @llvm.lifetime.end.p0(i64 1, ptr %16) #7
  %54 = load i32, ptr %15, align 4
  switch i32 %54, label %88 [
    i32 3, label %68
  ]

55:                                               ; preds = %48
  call void @llvm.lifetime.start.p0(i64 1, ptr %17) #7
  store i8 0, ptr %17, align 1, !tbaa !12
  %56 = load i8, ptr %17, align 1, !tbaa !12
  store i8 %56, ptr %12, align 1, !tbaa !12
  store i32 3, ptr %15, align 4
  call void @llvm.lifetime.end.p0(i64 1, ptr %17) #7
  %57 = load i32, ptr %15, align 4
  switch i32 %57, label %88 [
    i32 3, label %68
  ]

58:                                               ; preds = %44
  %59 = load i8, ptr %10, align 1, !tbaa !12
  %60 = zext i8 %59 to i32
  %61 = icmp eq i32 %60, 0
  br i1 %61, label %62, label %65

62:                                               ; preds = %58
  call void @llvm.lifetime.start.p0(i64 1, ptr %18) #7
  store i8 0, ptr %18, align 1, !tbaa !12
  %63 = load i8, ptr %18, align 1, !tbaa !12
  store i8 %63, ptr %12, align 1, !tbaa !12
  store i32 3, ptr %15, align 4
  call void @llvm.lifetime.end.p0(i64 1, ptr %18) #7
  %64 = load i32, ptr %15, align 4
  switch i32 %64, label %88 [
    i32 3, label %68
  ]

65:                                               ; preds = %58
  call void @llvm.lifetime.start.p0(i64 1, ptr %19) #7
  store i8 1, ptr %19, align 1, !tbaa !12
  %66 = load i8, ptr %19, align 1, !tbaa !12
  store i8 %66, ptr %12, align 1, !tbaa !12
  store i32 3, ptr %15, align 4
  call void @llvm.lifetime.end.p0(i64 1, ptr %19) #7
  %67 = load i32, ptr %15, align 4
  switch i32 %67, label %88 [
    i32 3, label %68
  ]

68:                                               ; preds = %65, %62, %55, %52
  %69 = load i8, ptr %12, align 1, !tbaa !12
  %70 = zext i8 %69 to i32
  %71 = icmp eq i32 %70, 0
  br i1 %71, label %72, label %74

72:                                               ; preds = %68
  call void @llvm.lifetime.start.p0(i64 1, ptr %20) #7
  store i8 0, ptr %20, align 1, !tbaa !12
  %73 = load i8, ptr %20, align 1, !tbaa !12
  store i8 %73, ptr %3, align 1
  store i32 1, ptr %15, align 4
  call void @llvm.lifetime.end.p0(i64 1, ptr %20) #7
  br label %88

74:                                               ; preds = %68
  %75 = load i8, ptr %8, align 1, !tbaa !12
  %76 = zext i8 %75 to i32
  %77 = icmp eq i32 %76, 0
  br i1 %77, label %78, label %86

78:                                               ; preds = %74
  %79 = load i8, ptr %11, align 1, !tbaa !12
  %80 = zext i8 %79 to i32
  %81 = icmp eq i32 %80, 0
  br i1 %81, label %82, label %84

82:                                               ; preds = %78
  call void @llvm.lifetime.start.p0(i64 1, ptr %21) #7
  store i8 1, ptr %21, align 1, !tbaa !12
  %83 = load i8, ptr %21, align 1, !tbaa !12
  store i8 %83, ptr %3, align 1
  store i32 1, ptr %15, align 4
  call void @llvm.lifetime.end.p0(i64 1, ptr %21) #7
  br label %88

84:                                               ; preds = %78
  call void @llvm.lifetime.start.p0(i64 1, ptr %22) #7
  store i8 0, ptr %22, align 1, !tbaa !12
  %85 = load i8, ptr %22, align 1, !tbaa !12
  store i8 %85, ptr %3, align 1
  store i32 1, ptr %15, align 4
  call void @llvm.lifetime.end.p0(i64 1, ptr %22) #7
  br label %88

86:                                               ; preds = %74
  %87 = load i8, ptr %11, align 1, !tbaa !12
  store i8 %87, ptr %3, align 1
  store i32 1, ptr %15, align 4
  br label %88

88:                                               ; preds = %86, %84, %82, %72, %65, %62, %55, %52, %42
  call void @llvm.lifetime.end.p0(i64 1, ptr %13) #7
  call void @llvm.lifetime.end.p0(i64 1, ptr %12) #7
  call void @llvm.lifetime.end.p0(i64 1, ptr %11) #7
  call void @llvm.lifetime.end.p0(i64 1, ptr %10) #7
  call void @llvm.lifetime.end.p0(i64 8, ptr %9) #7
  call void @llvm.lifetime.end.p0(i64 1, ptr %8) #7
  call void @llvm.lifetime.end.p0(i64 1, ptr %7) #7
  call void @llvm.lifetime.end.p0(i64 8, ptr %6) #7
  %89 = load i8, ptr %3, align 1
  ret i8 %89
}

; Function Attrs: nounwind uwtable
define ptr @l_Lake_beqImport____x40_Lake_Load_Lean_Elab___hyg_6____boxed(ptr noundef %0, ptr noundef %1) #2 {
  %3 = alloca ptr, align 8
  %4 = alloca ptr, align 8
  %5 = alloca i8, align 1
  %6 = alloca ptr, align 8
  store ptr %0, ptr %3, align 8, !tbaa !8
  store ptr %1, ptr %4, align 8, !tbaa !8
  br label %7

7:                                                ; preds = %2
  call void @llvm.lifetime.start.p0(i64 1, ptr %5) #7
  call void @llvm.lifetime.start.p0(i64 8, ptr %6) #7
  %8 = load ptr, ptr %3, align 8, !tbaa !8
  %9 = load ptr, ptr %4, align 8, !tbaa !8
  %10 = call zeroext i8 @l_Lake_beqImport____x40_Lake_Load_Lean_Elab___hyg_6_(ptr noundef %8, ptr noundef %9)
  store i8 %10, ptr %5, align 1, !tbaa !12
  %11 = load ptr, ptr %4, align 8, !tbaa !8
  call void @lean_dec(ptr noundef %11)
  %12 = load ptr, ptr %3, align 8, !tbaa !8
  call void @lean_dec(ptr noundef %12)
  %13 = load i8, ptr %5, align 1, !tbaa !12
  %14 = zext i8 %13 to i64
  %15 = call ptr @lean_box(i64 noundef %14)
  store ptr %15, ptr %6, align 8, !tbaa !8
  %16 = load ptr, ptr %6, align 8, !tbaa !8
  call void @llvm.lifetime.end.p0(i64 8, ptr %6) #7
  call void @llvm.lifetime.end.p0(i64 1, ptr %5) #7
  ret ptr %16
}