; Function Attrs: nounwind uwtable
define nonnull ptr @l_Lake_beqImport____x40_Lake_Load_Lean_Elab___hyg_6____boxed(ptr noundef %0, ptr noundef %1) #0 {
  %3 = getelementptr inbounds nuw i8, ptr %0, i64 8
  %4 = load ptr, ptr %3, align 8, !tbaa !4
  %5 = getelementptr inbounds nuw i8, ptr %0, i64 16
  %6 = load i8, ptr %5, align 1, !tbaa !8
  %7 = getelementptr inbounds nuw i8, ptr %0, i64 17
  %8 = load i8, ptr %7, align 1, !tbaa !8
  %9 = getelementptr inbounds nuw i8, ptr %1, i64 8
  %10 = load ptr, ptr %9, align 8, !tbaa !4
  %11 = getelementptr inbounds nuw i8, ptr %1, i64 16
  %12 = load i8, ptr %11, align 1, !tbaa !8
  %13 = getelementptr inbounds nuw i8, ptr %1, i64 17
  %14 = load i8, ptr %13, align 1, !tbaa !8
  %15 = tail call zeroext i8 @lean_name_eq(ptr noundef %4, ptr noundef %10) #5
  %16 = icmp eq i8 %15, 0
  br i1 %16, label %l_Lake_beqImport____x40_Lake_Load_Lean_Elab___hyg_6_.exit, label %17

17:                                               ; preds = %2
  %18 = icmp eq i8 %6, 0
  %.not.i8 = icmp eq i8 %12, 0
  br i1 %18, label %19, label %20

19:                                               ; preds = %17
  br i1 %.not.i8, label %21, label %l_Lake_beqImport____x40_Lake_Load_Lean_Elab___hyg_6_.exit

20:                                               ; preds = %17
  br i1 %.not.i8, label %l_Lake_beqImport____x40_Lake_Load_Lean_Elab___hyg_6_.exit, label %21

21:                                               ; preds = %20, %19
  %22 = icmp eq i8 %8, 0
  br i1 %22, label %23, label %l_Lake_beqImport____x40_Lake_Load_Lean_Elab___hyg_6_.exit

23:                                               ; preds = %21
  %24 = icmp eq i8 %14, 0
  %.33.i = zext i1 %24 to i8
  br label %l_Lake_beqImport____x40_Lake_Load_Lean_Elab___hyg_6_.exit

l_Lake_beqImport____x40_Lake_Load_Lean_Elab___hyg_6_.exit: ; preds = %2, %19, %20, %21, %23
  %.0.i = phi i8 [ 0, %2 ], [ 0, %20 ], [ %.33.i, %23 ], [ %14, %21 ], [ 0, %19 ]
  %25 = ptrtoint ptr %1 to i64
  %26 = and i64 %25, 1
  %.not = icmp eq i64 %26, 0
  br i1 %.not, label %27, label %lean_dec.exit

27:                                               ; preds = %l_Lake_beqImport____x40_Lake_Load_Lean_Elab___hyg_6_.exit
  %28 = load i32, ptr %1, align 4, !tbaa !9
  %29 = icmp sgt i32 %28, 1
  br i1 %29, label %30, label %32, !prof !12

30:                                               ; preds = %27
  %31 = add nsw i32 %28, -1
  store i32 %31, ptr %1, align 4, !tbaa !9
  br label %lean_dec.exit

32:                                               ; preds = %27
  %.not.i6 = icmp eq i32 %28, 0
  br i1 %.not.i6, label %lean_dec.exit, label %33

33:                                               ; preds = %32
  tail call void @lean_dec_ref_cold(ptr noundef nonnull %1) #5
  br label %lean_dec.exit

lean_dec.exit:                                    ; preds = %33, %32, %30, %l_Lake_beqImport____x40_Lake_Load_Lean_Elab___hyg_6_.exit
  %34 = ptrtoint ptr %0 to i64
  %35 = and i64 %34, 1
  %.not9 = icmp eq i64 %35, 0
  br i1 %.not9, label %36, label %lean_dec.exit5

36:                                               ; preds = %lean_dec.exit
  %37 = load i32, ptr %0, align 4, !tbaa !9
  %38 = icmp sgt i32 %37, 1
  br i1 %38, label %39, label %41, !prof !12

39:                                               ; preds = %36
  %40 = add nsw i32 %37, -1
  store i32 %40, ptr %0, align 4, !tbaa !9
  br label %lean_dec.exit5

41:                                               ; preds = %36
  %.not.i = icmp eq i32 %37, 0
  br i1 %.not.i, label %lean_dec.exit5, label %42

42:                                               ; preds = %41
  tail call void @lean_dec_ref_cold(ptr noundef nonnull %0) #5
  br label %lean_dec.exit5

lean_dec.exit5:                                   ; preds = %42, %41, %39, %lean_dec.exit
  %43 = zext i8 %.0.i to i64
  %44 = shl nuw nsw i64 %43, 1
  %45 = or disjoint i64 %44, 1
  %46 = inttoptr i64 %45 to ptr
  ret ptr %46
}